target datalayout = "e-m:e-p270:32:32-p271:32:32-p272:64:64-i64:64-i128:128-f80:128-n8:16:32:64-S128"
target triple = "x86_64-pc-linux-gnu"

%struct.Vec_Int_t_ = type { i32, i32, ptr }
%struct.timespec = type { i64, i64 }

@.str.6 = private unnamed_addr constant [70 x i8] c"Detected %d FAs/HAs. Roots = %d. Leaves = %d. Nodes = %d. Adds = %d. \00", align 1
@.str.7 = private unnamed_addr constant [5 x i8] c"Time\00", align 1
@.str.11 = private unnamed_addr constant [5 x i8] c"%s =\00", align 1
@.str.12 = private unnamed_addr constant [11 x i8] c"%9.2f sec\0A\00", align 1

; Function Attrs: inlinehint nounwind uwtable
define internal void @Vec_IntFree(ptr noundef %0) #3 {
  %2 = alloca ptr, align 8
  store ptr %0, ptr %2, align 8, !tbaa !10
  %3 = load ptr, ptr %2, align 8, !tbaa !10
  %4 = getelementptr inbounds nuw %struct.Vec_Int_t_, ptr %3, i32 0, i32 2
  %5 = load ptr, ptr %4, align 8, !tbaa !36
  %6 = icmp ne ptr %5, null
  br i1 %6, label %7, label %13

7:                                                ; preds = %1
  %8 = load ptr, ptr %2, align 8, !tbaa !10
  %9 = getelementptr inbounds nuw %struct.Vec_Int_t_, ptr %8, i32 0, i32 2
  %10 = load ptr, ptr %9, align 8, !tbaa !36
  call void @free(ptr noundef %10) #13
  %11 = load ptr, ptr %2, align 8, !tbaa !10
  %12 = getelementptr inbounds nuw %struct.Vec_Int_t_, ptr %11, i32 0, i32 2
  store ptr null, ptr %12, align 8, !tbaa !36
  br label %14

13:                                               ; preds = %1
  br label %14

14:                                               ; preds = %13, %7
  %15 = load ptr, ptr %2, align 8, !tbaa !10
  %16 = icmp ne ptr %15, null
  br i1 %16, label %17, label %19

17:                                               ; preds = %14
  %18 = load ptr, ptr %2, align 8, !tbaa !10
  call void @free(ptr noundef %18) #13
  store ptr null, ptr %2, align 8, !tbaa !10
  br label %20

19:                                               ; preds = %14
  br label %20

20:                                               ; preds = %19, %17
  ret void
}

; Function Attrs: inlinehint nounwind uwtable
define internal void @Abc_PrintTime(i32 noundef %0, ptr noundef %1, i64 noundef %2) #3 {
  %4 = alloca i32, align 4
  %5 = alloca ptr, align 8
  %6 = alloca i64, align 8
  store i32 %0, ptr %4, align 4, !tbaa !12
  store ptr %1, ptr %5, align 8, !tbaa !81
  store i64 %2, ptr %6, align 8, !tbaa !84
  %7 = load ptr, ptr %5, align 8, !tbaa !81
  call void (i32, ptr, ...) @Abc_Print(i32 noundef 1, ptr noundef @.str.11, ptr noundef %7)
  %8 = load i64, ptr %6, align 8, !tbaa !84
  %9 = sitofp i64 %8 to double
  %10 = fmul double 1.000000e+00, %9
  %11 = fdiv double %10, 1.000000e+06
  call void (i32, ptr, ...) @Abc_Print(i32 noundef 1, ptr noundef @.str.12, double noundef %11)
  ret void
}

; Function Attrs: inlinehint nounwind uwtable
define internal i32 @Vec_IntSize(ptr noundef %0) #3 {
  %2 = alloca ptr, align 8
  store ptr %0, ptr %2, align 8, !tbaa !10
  %3 = load ptr, ptr %2, align 8, !tbaa !10
  %4 = getelementptr inbounds nuw %struct.Vec_Int_t_, ptr %3, i32 0, i32 1
  %5 = load i32, ptr %4, align 4, !tbaa !34
  ret i32 %5
}

; Function Attrs: inlinehint nounwind uwtable
define internal i64 @Abc_Clock() #3 {
  %1 = alloca i64, align 8
  %2 = alloca %struct.timespec, align 8
  %3 = alloca i32, align 4
  %4 = alloca i64, align 8
  call void @llvm.lifetime.start.p0(i64 16, ptr %2) #13
  %5 = call i32 @clock_gettime(i32 noundef 1, ptr noundef %2) #13
  %6 = icmp slt i32 %5, 0
  br i1 %6, label %7, label %8

7:                                                ; preds = %0
  store i64 -1, ptr %1, align 8
  store i32 1, ptr %3, align 4
  br label %19

8:                                                ; preds = %0
  call void @llvm.lifetime.start.p0(i64 8, ptr %4) #13
  %9 = getelementptr inbounds nuw %struct.timespec, ptr %2, i32 0, i32 0
  %10 = load i64, ptr %9, align 8, !tbaa !93
  %11 = mul nsw i64 %10, 1000000
  store i64 %11, ptr %4, align 8, !tbaa !84
  %12 = getelementptr inbounds nuw %struct.timespec, ptr %2, i32 0, i32 1
  %13 = load i64, ptr %12, align 8, !tbaa !95
  %14 = mul nsw i64 %13, 1000000
  %15 = sdiv i64 %14, 1000000000
  %16 = load i64, ptr %4, align 8, !tbaa !84
  %17 = add nsw i64 %16, %15
  store i64 %17, ptr %4, align 8, !tbaa !84
  %18 = load i64, ptr %4, align 8, !tbaa !84
  store i64 %18, ptr %1, align 8
  store i32 1, ptr %3, align 4
  call void @llvm.lifetime.end.p0(i64 8, ptr %4) #13
  br label %19

19:                                               ; preds = %8, %7
  call void @llvm.lifetime.end.p0(i64 16, ptr %2) #13
  %20 = load i64, ptr %1, align 8
  ret i64 %20
}

; Function Attrs: nounwind uwtable
define ptr @Gia_PolynCoreDetectTest_int(ptr noundef %0, ptr noundef %1, i32 noundef %2, i32 noundef %3) #0 {
  %5 = alloca ptr, align 8
  %6 = alloca ptr, align 8
  %7 = alloca i32, align 4
  %8 = alloca i32, align 4
  %9 = alloca i64, align 8
  %10 = alloca ptr, align 8
  %11 = alloca ptr, align 8
  %12 = alloca ptr, align 8
  %13 = alloca ptr, align 8
  %14 = alloca ptr, align 8
  %15 = alloca ptr, align 8
  store ptr %0, ptr %5, align 8, !tbaa !3
  store ptr %1, ptr %6, align 8, !tbaa !10
  store i32 %2, ptr %7, align 4, !tbaa !12
  store i32 %3, ptr %8, align 4, !tbaa !12
  call void @llvm.lifetime.start.p0(i64 8, ptr %9) #13
  %16 = call i64 @Abc_Clock()
  store i64 %16, ptr %9, align 8, !tbaa !84
  call void @llvm.lifetime.start.p0(i64 8, ptr %10) #13
  call void @llvm.lifetime.start.p0(i64 8, ptr %11) #13
  %17 = load ptr, ptr %5, align 8, !tbaa !3
  %18 = call ptr @Ree_ManComputeCuts(ptr noundef %17, ptr noundef null, i32 noundef 1)
  store ptr %18, ptr %11, align 8, !tbaa !10
  call void @llvm.lifetime.start.p0(i64 8, ptr %12) #13
  call void @llvm.lifetime.start.p0(i64 8, ptr %13) #13
  call void @llvm.lifetime.start.p0(i64 8, ptr %14) #13
  %19 = load ptr, ptr %5, align 8, !tbaa !3
  %20 = load ptr, ptr %11, align 8, !tbaa !10
  %21 = load ptr, ptr %6, align 8, !tbaa !10
  %22 = call ptr @Gia_PolynCoreOrder(ptr noundef %19, ptr noundef %20, ptr noundef %21, ptr noundef %12, ptr noundef %13)
  store ptr %22, ptr %14, align 8, !tbaa !10
  call void @llvm.lifetime.start.p0(i64 8, ptr %15) #13
  %23 = load ptr, ptr %5, align 8, !tbaa !3
  %24 = load ptr, ptr %11, align 8, !tbaa !10
  %25 = load ptr, ptr %14, align 8, !tbaa !10
  %26 = call ptr @Gia_PolynCoreCollect(ptr noundef %23, ptr noundef %24, ptr noundef %25)
  store ptr %26, ptr %15, align 8, !tbaa !10
  %27 = load ptr, ptr %11, align 8, !tbaa !10
  %28 = call i32 @Vec_IntSize(ptr noundef %27)
  %29 = sdiv i32 %28, 6
  %30 = load ptr, ptr %12, align 8, !tbaa !10
  %31 = call i32 @Vec_IntSize(ptr noundef %30)
  %32 = load ptr, ptr %13, align 8, !tbaa !10
  %33 = call i32 @Vec_IntSize(ptr noundef %32)
  %34 = load ptr, ptr %15, align 8, !tbaa !10
  %35 = call i32 @Vec_IntSize(ptr noundef %34)
  %36 = load ptr, ptr %14, align 8, !tbaa !10
  %37 = call i32 @Vec_IntSize(ptr noundef %36)
  %38 = call i32 (ptr, ...) @printf(ptr noundef @.str.6, i32 noundef %29, i32 noundef %31, i32 noundef %33, i32 noundef %35, i32 noundef %37)
  %39 = call i64 @Abc_Clock()
  %40 = load i64, ptr %9, align 8, !tbaa !84
  %41 = sub nsw i64 %39, %40
  call void @Abc_PrintTime(i32 noundef 1, ptr noundef @.str.7, i64 noundef %41)
  %42 = load ptr, ptr %5, align 8, !tbaa !3
  %43 = load ptr, ptr %12, align 8, !tbaa !10
  %44 = load i32, ptr %8, align 4, !tbaa !12
  call void @Gia_PolynCorePrintCones(ptr noundef %42, ptr noundef %43, i32 noundef %44)
  %45 = load ptr, ptr %5, align 8, !tbaa !3
  %46 = load ptr, ptr %6, align 8, !tbaa !10
  %47 = load ptr, ptr %12, align 8, !tbaa !10
  %48 = load ptr, ptr %15, align 8, !tbaa !10
  %49 = load i32, ptr %7, align 4, !tbaa !12
  %50 = call ptr @Gia_PolynCoreDupTree(ptr noundef %45, ptr noundef %46, ptr noundef %47, ptr noundef %48, i32 noundef %49)
  store ptr %50, ptr %10, align 8, !tbaa !3
  %51 = load ptr, ptr %11, align 8, !tbaa !10
  call void @Vec_IntFree(ptr noundef %51)
  %52 = load ptr, ptr %12, align 8, !tbaa !10
  call void @Vec_IntFree(ptr noundef %52)
  %53 = load ptr, ptr %13, align 8, !tbaa !10
  call void @Vec_IntFree(ptr noundef %53)
  %54 = load ptr, ptr %14, align 8, !tbaa !10
  call void @Vec_IntFree(ptr noundef %54)
  %55 = load ptr, ptr %15, align 8, !tbaa !10
  call void @Vec_IntFree(ptr noundef %55)
  %56 = load ptr, ptr %10, align 8, !tbaa !3
  call void @llvm.lifetime.end.p0(i64 8, ptr %15) #13
  call void @llvm.lifetime.end.p0(i64 8, ptr %14) #13
  call void @llvm.lifetime.end.p0(i64 8, ptr %13) #13
  call void @llvm.lifetime.end.p0(i64 8, ptr %12) #13
  call void @llvm.lifetime.end.p0(i64 8, ptr %11) #13
  call void @llvm.lifetime.end.p0(i64 8, ptr %10) #13
  call void @llvm.lifetime.end.p0(i64 8, ptr %9) #13
  ret ptr %56
}