; Function Attrs: nounwind uwtable
define ptr @Gia_PolynCoreDetectTest_int(ptr noundef %0, ptr noundef %1, i32 noundef %2, i32 noundef %3) local_unnamed_addr #0 {
  %5 = alloca %struct.timespec, align 8
  %6 = alloca %struct.timespec, align 8
  %7 = alloca ptr, align 8
  %8 = alloca ptr, align 8
  call void @llvm.lifetime.start.p0(i64 16, ptr nonnull %6) #19
  %9 = call i32 @clock_gettime(i32 noundef 1, ptr noundef nonnull %6) #19
  %10 = icmp slt i32 %9, 0
  br i1 %10, label %Abc_Clock.exit, label %11

11:                                               ; preds = %4
  %12 = load i64, ptr %6, align 8, !tbaa !83
  %.neg34 = mul i64 %12, -1000000
  %13 = getelementptr inbounds nuw i8, ptr %6, i64 8
  %14 = load i64, ptr %13, align 8, !tbaa !85
  %.neg = sdiv i64 %14, -1000
  %.neg35 = add i64 %.neg, %.neg34
  br label %Abc_Clock.exit

Abc_Clock.exit:                                   ; preds = %4, %11
  %.0.i.neg = phi i64 [ %.neg35, %11 ], [ 1, %4 ]
  call void @llvm.lifetime.end.p0(i64 16, ptr nonnull %6) #19
  %15 = call ptr @Ree_ManComputeCuts(ptr noundef %0, ptr noundef null, i32 noundef 1) #19
  call void @llvm.lifetime.start.p0(i64 8, ptr nonnull %7) #19
  call void @llvm.lifetime.start.p0(i64 8, ptr nonnull %8) #19
  %16 = call ptr @Gia_PolynCoreOrder(ptr noundef %0, ptr noundef %15, ptr noundef %1, ptr noundef nonnull %7, ptr noundef nonnull %8)
  %17 = call ptr @Gia_PolynCoreCollect(ptr noundef %0, ptr noundef %15, ptr noundef %16)
  %18 = getelementptr i8, ptr %15, i64 4
  %.val23 = load i32, ptr %18, align 4, !tbaa !29
  %19 = sdiv i32 %.val23, 6
  %20 = load ptr, ptr %7, align 8, !tbaa !59
  %21 = getelementptr i8, ptr %20, i64 4
  %.val22 = load i32, ptr %21, align 4, !tbaa !29
  %22 = load ptr, ptr %8, align 8, !tbaa !59
  %23 = getelementptr i8, ptr %22, i64 4
  %.val21 = load i32, ptr %23, align 4, !tbaa !29
  %24 = getelementptr i8, ptr %17, i64 4
  %.val20 = load i32, ptr %24, align 4, !tbaa !29
  %25 = getelementptr i8, ptr %16, i64 4
  %.val = load i32, ptr %25, align 4, !tbaa !29
  %26 = call i32 (ptr, ...) @printf(ptr noundef nonnull dereferenceable(1) @.str.6, i32 noundef %19, i32 noundef %.val22, i32 noundef %.val21, i32 noundef %.val20, i32 noundef %.val)
  call void @llvm.lifetime.start.p0(i64 16, ptr nonnull %5) #19
  %27 = call i32 @clock_gettime(i32 noundef 1, ptr noundef nonnull %5) #19
  %28 = icmp slt i32 %27, 0
  br i1 %28, label %Abc_Clock.exit25, label %29

29:                                               ; preds = %Abc_Clock.exit
  %30 = load i64, ptr %5, align 8, !tbaa !83
  %31 = mul nsw i64 %30, 1000000
  %32 = getelementptr inbounds nuw i8, ptr %5, i64 8
  %33 = load i64, ptr %32, align 8, !tbaa !85
  %34 = sdiv i64 %33, 1000
  %35 = add nsw i64 %34, %31
  br label %Abc_Clock.exit25

Abc_Clock.exit25:                                 ; preds = %Abc_Clock.exit, %29
  %.0.i24 = phi i64 [ %35, %29 ], [ -1, %Abc_Clock.exit ]
  call void @llvm.lifetime.end.p0(i64 16, ptr nonnull %5) #19
  %36 = add i64 %.0.i24, %.0.i.neg
  call void (i32, ptr, ...) @Abc_Print(i32 poison, ptr noundef nonnull @.str.11, ptr noundef nonnull @.str.7)
  %37 = sitofp i64 %36 to double
  %38 = fdiv double %37, 1.000000e+06
  call void (i32, ptr, ...) @Abc_Print(i32 poison, ptr noundef nonnull @.str.12, double noundef %38)
  %39 = load ptr, ptr %7, align 8, !tbaa !59
  call void @Gia_PolynCorePrintCones(ptr noundef %0, ptr noundef %39, i32 noundef %3)
  %40 = load ptr, ptr %7, align 8, !tbaa !59
  %41 = call ptr @Gia_PolynCoreDupTree(ptr noundef %0, ptr noundef %1, ptr noundef %40, ptr noundef nonnull %17, i32 noundef %2)
  %42 = getelementptr inbounds nuw i8, ptr %15, i64 8
  %43 = load ptr, ptr %42, align 8, !tbaa !31
  %.not.i = icmp eq ptr %43, null
  br i1 %.not.i, label %Vec_IntFree.exit, label %44

44:                                               ; preds = %Abc_Clock.exit25
  call void @free(ptr noundef nonnull %43) #19
  br label %Vec_IntFree.exit

Vec_IntFree.exit:                                 ; preds = %Abc_Clock.exit25, %44
  call void @free(ptr noundef nonnull %15) #19
  %45 = load ptr, ptr %7, align 8, !tbaa !59
  %46 = getelementptr inbounds nuw i8, ptr %45, i64 8
  %47 = load ptr, ptr %46, align 8, !tbaa !31
  %.not.i26 = icmp eq ptr %47, null
  br i1 %.not.i26, label %Vec_IntFree.exit27, label %48

48:                                               ; preds = %Vec_IntFree.exit
  call void @free(ptr noundef nonnull %47) #19
  br label %Vec_IntFree.exit27

Vec_IntFree.exit27:                               ; preds = %Vec_IntFree.exit, %48
  call void @free(ptr noundef nonnull %45) #19
  %49 = load ptr, ptr %8, align 8, !tbaa !59
  %50 = getelementptr inbounds nuw i8, ptr %49, i64 8
  %51 = load ptr, ptr %50, align 8, !tbaa !31
  %.not.i28 = icmp eq ptr %51, null
  br i1 %.not.i28, label %Vec_IntFree.exit29, label %52

52:                                               ; preds = %Vec_IntFree.exit27
  call void @free(ptr noundef nonnull %51) #19
  br label %Vec_IntFree.exit29

Vec_IntFree.exit29:                               ; preds = %Vec_IntFree.exit27, %52
  call void @free(ptr noundef nonnull %49) #19
  %53 = getelementptr inbounds nuw i8, ptr %16, i64 8
  %54 = load ptr, ptr %53, align 8, !tbaa !31
  %.not.i30 = icmp eq ptr %54, null
  br i1 %.not.i30, label %Vec_IntFree.exit31, label %55

55:                                               ; preds = %Vec_IntFree.exit29
  call void @free(ptr noundef nonnull %54) #19
  br label %Vec_IntFree.exit31

Vec_IntFree.exit31:                               ; preds = %Vec_IntFree.exit29, %55
  call void @free(ptr noundef nonnull %16) #19
  %56 = getelementptr inbounds nuw i8, ptr %17, i64 8
  %57 = load ptr, ptr %56, align 8, !tbaa !31
  %.not.i32 = icmp eq ptr %57, null
  br i1 %.not.i32, label %Vec_IntFree.exit33, label %58

58:                                               ; preds = %Vec_IntFree.exit31
  call void @free(ptr noundef nonnull %57) #19
  br label %Vec_IntFree.exit33

Vec_IntFree.exit33:                               ; preds = %Vec_IntFree.exit31, %58
  call void @free(ptr noundef nonnull %17) #19
  call void @llvm.lifetime.end.p0(i64 8, ptr nonnull %8) #19
  call void @llvm.lifetime.end.p0(i64 8, ptr nonnull %7) #19
  ret ptr %41
}